; Function Attrs: nounwind uwtable
define hidden void @_PyErr_RaiseSyntaxError(ptr noundef %0, ptr noundef %1, i32 noundef %2, i32 noundef %3, i32 noundef %4, i32 noundef %5) local_unnamed_addr #0 {
  %7 = tail call ptr @_PyErr_ProgramDecodedTextObject(ptr noundef %1, i32 noundef %2, ptr noundef null)
  %8 = icmp eq ptr %7, null
  br i1 %8, label %9, label %_Py_NewRef.exit

9:                                                ; preds = %6
  %10 = load i32, ptr @_Py_NoneStruct, align 8, !tbaa !20
  %11 = icmp slt i32 %10, 0
  br i1 %11, label %_Py_NewRef.exit, label %12

12:                                               ; preds = %9
  %13 = add nuw i32 %10, 1
  store i32 %13, ptr @_Py_NoneStruct, align 8, !tbaa !20
  br label %_Py_NewRef.exit

_Py_NewRef.exit:                                  ; preds = %12, %9, %6
  %.0 = phi ptr [ %7, %6 ], [ @_Py_NoneStruct, %9 ], [ @_Py_NoneStruct, %12 ]
  %14 = tail call ptr (ptr, ...) @Py_BuildValue(ptr noundef nonnull @.str.19, ptr noundef %0, ptr noundef %1, i32 noundef %2, i32 noundef %3, ptr noundef nonnull %.0, i32 noundef %4, i32 noundef %5) #17
  %15 = icmp eq ptr %14, null
  br i1 %15, label %.split13, label %.split

.split13:                                         ; preds = %_Py_NewRef.exit
  %16 = load i32, ptr %.0, align 8, !tbaa !20
  %.not.i = icmp sgt i32 %16, -1
  br i1 %.not.i, label %17, label %Py_DECREF.exit

17:                                               ; preds = %.split13
  %18 = add nsw i32 %16, -1
  store i32 %18, ptr %.0, align 8, !tbaa !20
  %19 = icmp eq i32 %18, 0
  br i1 %19, label %Py_DECREF.exit.sink.split, label %Py_DECREF.exit

.split:                                           ; preds = %_Py_NewRef.exit
  %20 = load ptr, ptr @PyExc_SyntaxError, align 8, !tbaa !24
  %21 = tail call align 8 ptr @llvm.threadlocal.address.p0(ptr align 8 @_Py_tss_tstate)
  %22 = load ptr, ptr %21, align 8, !tbaa !25
  tail call void @_PyErr_SetObject(ptr noundef %22, ptr noundef %20, ptr noundef nonnull %14)
  %23 = load i32, ptr %.0, align 8, !tbaa !20
  %.not.i16 = icmp sgt i32 %23, -1
  br i1 %.not.i16, label %24, label %Py_DECREF.exit17

24:                                               ; preds = %.split
  %25 = add nsw i32 %23, -1
  store i32 %25, ptr %.0, align 8, !tbaa !20
  %26 = icmp eq i32 %25, 0
  br i1 %26, label %27, label %Py_DECREF.exit17

27:                                               ; preds = %24
  tail call void @_Py_Dealloc(ptr noundef nonnull %.0) #17
  br label %Py_DECREF.exit17

Py_DECREF.exit17:                                 ; preds = %27, %24, %.split
  %28 = load i32, ptr %14, align 8, !tbaa !20
  %.not.i.i = icmp sgt i32 %28, -1
  br i1 %.not.i.i, label %29, label %Py_DECREF.exit

29:                                               ; preds = %Py_DECREF.exit17
  %30 = add nsw i32 %28, -1
  store i32 %30, ptr %14, align 8, !tbaa !20
  %31 = icmp eq i32 %30, 0
  br i1 %31, label %Py_DECREF.exit.sink.split, label %Py_DECREF.exit

Py_DECREF.exit.sink.split:                        ; preds = %29, %17
  %.sink = phi ptr [ %.0, %17 ], [ %14, %29 ]
  tail call void @_Py_Dealloc(ptr noundef nonnull %.sink) #17
  br label %Py_DECREF.exit

Py_DECREF.exit:                                   ; preds = %Py_DECREF.exit.sink.split, %29, %Py_DECREF.exit17, %17, %.split13
  ret void
}